target datalayout = "e-m:e-p270:32:32-p271:32:32-p272:64:64-i64:64-i128:128-f80:128-n8:16:32:64-S128"
target triple = "x86_64-pc-linux-gnu"

; Function Attrs: mustprogress uwtable
define internal noundef i64 @_ZN3net12_GLOBAL__N_113DefaultRandom10RandUint64Ev(ptr noundef nonnull align 8 dereferenceable(8) %0) unnamed_addr #0 align 2 {
  %2 = alloca ptr, align 8
  %3 = alloca i64, align 8
  store ptr %0, ptr %2, align 8, !tbaa !7
  %4 = load ptr, ptr %2, align 8
  call void @llvm.lifetime.start.p0(i64 8, ptr %3) #10
  %5 = load ptr, ptr %4, align 8, !tbaa !23
  %6 = getelementptr inbounds ptr, ptr %5, i64 2
  %7 = load ptr, ptr %6, align 8
  call void %7(ptr noundef nonnull align 8 dereferenceable(8) %4, ptr noundef %3, i64 noundef 8)
  %8 = load i64, ptr %3, align 8, !tbaa !3
  call void @llvm.lifetime.end.p0(i64 8, ptr %3) #10
  ret i64 %8
}