; Function Attrs: mustprogress uwtable
define internal noundef i64 @_ZN3net12_GLOBAL__N_113DefaultRandom10RandUint64Ev(ptr noundef nonnull align 8 dereferenceable(8) %0) unnamed_addr #0 align 2 {
  %2 = alloca i64, align 8
  call void @llvm.lifetime.start.p0(i64 8, ptr nonnull %2) #8
  %3 = load ptr, ptr %0, align 8, !tbaa !3
  %4 = getelementptr inbounds nuw i8, ptr %3, i64 16
  %5 = load ptr, ptr %4, align 8
  call void %5(ptr noundef nonnull align 8 dereferenceable(8) %0, ptr noundef nonnull %2, i64 noundef 8)
  %6 = load i64, ptr %2, align 8, !tbaa !6
  call void @llvm.lifetime.end.p0(i64 8, ptr nonnull %2) #8
  ret i64 %6
}